target datalayout = "e-m:e-p270:32:32-p271:32:32-p272:64:64-i64:64-i128:128-f80:128-n8:16:32:64-S128"
target triple = "x86_64-pc-linux-gnu"

%struct.timeval = type { i64, i64 }
%struct.passwd = type { ptr, ptr, i32, i32, ptr, ptr, ptr }

@.str = private unnamed_addr constant [6 x i8] c"uid.c\00", align 1
@__func__.uid_from_string = private unnamed_addr constant [16 x i8] c"uid_from_string\00", align 1
@.str.4 = private unnamed_addr constant [36 x i8] c"%s: getpwnam_r(%s): no record found\00", align 1
@.str.5 = private unnamed_addr constant [23 x i8] c"%s: getpwnam_r(%s): %s\00", align 1
@.str.6 = private unnamed_addr constant [11 x i8] c"getpwnam_r\00", align 1

; Function Attrs: nounwind uwtable
define dso_local i32 @uid_from_string(ptr noundef %0, ptr noundef %1) #0 {
  %3 = alloca i32, align 4
  %4 = alloca ptr, align 8
  %5 = alloca ptr, align 8
  %6 = alloca %struct.timeval, align 8
  %7 = alloca %struct.timeval, align 8
  %8 = alloca [20 x i8], align 16
  %9 = alloca i64, align 8
  %10 = alloca %struct.passwd, align 8
  %11 = alloca ptr, align 8
  %12 = alloca [65536 x i8], align 16
  %13 = alloca ptr, align 8
  %14 = alloca i64, align 8
  %15 = alloca ptr, align 8
  %16 = alloca ptr, align 8
  %17 = alloca i64, align 8
  %18 = alloca i32, align 4
  %19 = alloca i32, align 4
  store ptr %0, ptr %4, align 8
  store ptr %1, ptr %5, align 8
  call void @llvm.lifetime.start.p0(i64 16, ptr %6) #9
  call void @llvm.lifetime.start.p0(i64 16, ptr %7) #9
  call void @llvm.lifetime.start.p0(i64 20, ptr %8) #9
  call void @llvm.memset.p0.i64(ptr align 16 %8, i8 0, i64 20, i1 false)
  call void @llvm.lifetime.start.p0(i64 8, ptr %9) #9
  call void @llvm.lifetime.start.p0(i64 48, ptr %10) #9
  call void @llvm.lifetime.start.p0(i64 8, ptr %11) #9
  store ptr null, ptr %11, align 8
  call void @llvm.lifetime.start.p0(i64 65536, ptr %12) #9
  call void @llvm.lifetime.start.p0(i64 8, ptr %13) #9
  store ptr null, ptr %13, align 8
  call void @llvm.lifetime.start.p0(i64 8, ptr %14) #9
  store i64 65536, ptr %14, align 8
  call void @llvm.lifetime.start.p0(i64 8, ptr %15) #9
  %20 = getelementptr inbounds [65536 x i8], ptr %12, i64 0, i64 0
  store ptr %20, ptr %15, align 8
  call void @llvm.lifetime.start.p0(i64 8, ptr %16) #9
  store ptr null, ptr %16, align 8
  call void @llvm.lifetime.start.p0(i64 8, ptr %17) #9
  %21 = load ptr, ptr %4, align 8
  %22 = icmp ne ptr %21, null
  br i1 %22, label %24, label %23

23:                                               ; preds = %2
  store i32 -1, ptr %3, align 4
  store i32 1, ptr %18, align 4
  br label %139

24:                                               ; preds = %2
  %25 = call i32 @gettimeofday(ptr noundef %6, ptr noundef null) #9
  br label %26

26:                                               ; preds = %85, %24
  br label %27

27:                                               ; preds = %26
  call void @llvm.lifetime.start.p0(i64 4, ptr %19) #9
  %28 = load ptr, ptr %4, align 8
  %29 = load ptr, ptr %15, align 8
  %30 = load i64, ptr %14, align 8
  %31 = call i32 @getpwnam_r(ptr noundef %28, ptr noundef %10, ptr noundef %29, i64 noundef %30, ptr noundef %11)
  store i32 %31, ptr %19, align 4
  %32 = load i32, ptr %19, align 4
  %33 = icmp ne i32 %32, 0
  br i1 %33, label %38, label %34

34:                                               ; preds = %27
  %35 = load ptr, ptr %11, align 8
  %36 = icmp ne ptr %35, null
  br i1 %36, label %37, label %38

37:                                               ; preds = %34
  store i32 3, ptr %18, align 4
  br label %85

38:                                               ; preds = %34, %27
  %39 = load i32, ptr %19, align 4
  %40 = icmp eq i32 %39, 4
  br i1 %40, label %41, label %42

41:                                               ; preds = %38
  store i32 2, ptr %18, align 4
  br label %85, !llvm.loop !10

42:                                               ; preds = %38
  %43 = load i32, ptr %19, align 4
  %44 = icmp eq i32 %43, 34
  br i1 %44, label %45, label %50

45:                                               ; preds = %42
  %46 = load i64, ptr %14, align 8
  %47 = mul i64 %46, 2
  store i64 %47, ptr %14, align 8
  %48 = load i64, ptr %14, align 8
  %49 = call ptr @slurm_xrecalloc(ptr noundef %13, i64 noundef 1, i64 noundef %48, i1 noundef zeroext true, i1 noundef zeroext false, ptr noundef @.str, i32 noundef 125, ptr noundef @__func__.uid_from_string)
  store ptr %49, ptr %15, align 8
  store i32 2, ptr %18, align 4
  br label %85, !llvm.loop !10

50:                                               ; preds = %42
  %51 = load i32, ptr %19, align 4
  %52 = icmp eq i32 %51, 0
  br i1 %52, label %65, label %53

53:                                               ; preds = %50
  %54 = load i32, ptr %19, align 4
  %55 = icmp eq i32 %54, 2
  br i1 %55, label %65, label %56

56:                                               ; preds = %53
  %57 = load i32, ptr %19, align 4
  %58 = icmp eq i32 %57, 3
  br i1 %58, label %65, label %59

59:                                               ; preds = %56
  %60 = load i32, ptr %19, align 4
  %61 = icmp eq i32 %60, 9
  br i1 %61, label %65, label %62

62:                                               ; preds = %59
  %63 = load i32, ptr %19, align 4
  %64 = icmp eq i32 %63, 1
  br i1 %64, label %65, label %77

65:                                               ; preds = %62, %59, %56, %53, %50
  br label %66

66:                                               ; preds = %65
  br label %67

67:                                               ; preds = %66
  %68 = call i32 @get_log_level()
  %69 = icmp sge i32 %68, 6
  br i1 %69, label %70, label %72

70:                                               ; preds = %67
  %71 = load ptr, ptr %4, align 8
  call void (i32, ptr, ...) @log_var(i32 noundef 6, ptr noundef @.str.4, ptr noundef @__func__.uid_from_string, ptr noundef %71)
  br label %72

72:                                               ; preds = %70, %67
  br label %73

73:                                               ; preds = %72
  br label %74

74:                                               ; preds = %73
  br label %75

75:                                               ; preds = %74
  br label %76

76:                                               ; preds = %75
  br label %82

77:                                               ; preds = %62
  %78 = load ptr, ptr %4, align 8
  %79 = load i32, ptr %19, align 4
  %80 = call ptr @slurm_strerror(i32 noundef %79)
  %81 = call i32 (ptr, ...) @error(ptr noundef @.str.5, ptr noundef @__func__.uid_from_string, ptr noundef %78, ptr noundef %80)
  br label %82

82:                                               ; preds = %77, %76
  br label %83

83:                                               ; preds = %82
  br label %84

84:                                               ; preds = %83
  store ptr null, ptr %11, align 8
  store i32 3, ptr %18, align 4
  br label %85

85:                                               ; preds = %84, %45, %41, %37
  call void @llvm.lifetime.end.p0(i64 4, ptr %19) #9
  %86 = load i32, ptr %18, align 4
  switch i32 %86, label %141 [
    i32 3, label %87
    i32 2, label %26
  ]

87:                                               ; preds = %85
  br label %88

88:                                               ; preds = %87
  %89 = call i32 @gettimeofday(ptr noundef %7, ptr noundef null) #9
  %90 = getelementptr inbounds [20 x i8], ptr %8, i64 0, i64 0
  call void @slurm_diff_tv_str(ptr noundef %6, ptr noundef %7, ptr noundef %90, i32 noundef 20, ptr noundef @.str.6, i64 noundef 0, ptr noundef %9)
  br label %91

91:                                               ; preds = %88
  br label %92

92:                                               ; preds = %91
  %93 = load ptr, ptr %11, align 8
  %94 = icmp ne ptr %93, null
  br i1 %94, label %95, label %100

95:                                               ; preds = %92
  %96 = load ptr, ptr %11, align 8
  %97 = getelementptr inbounds nuw %struct.passwd, ptr %96, i32 0, i32 2
  %98 = load i32, ptr %97, align 8
  %99 = load ptr, ptr %5, align 8
  store i32 %98, ptr %99, align 4
  call void @slurm_xfree(ptr noundef %13)
  store i32 0, ptr %3, align 4
  store i32 1, ptr %18, align 4
  br label %139

100:                                              ; preds = %92
  %101 = call ptr @__errno_location() #10
  store i32 0, ptr %101, align 4
  %102 = load ptr, ptr %4, align 8
  %103 = call i64 @strtol(ptr noundef %102, ptr noundef %16, i32 noundef 10) #9
  store i64 %103, ptr %17, align 8
  %104 = call ptr @__errno_location() #10
  %105 = load i32, ptr %104, align 4
  %106 = icmp eq i32 %105, 34
  br i1 %106, label %107, label %113

107:                                              ; preds = %100
  %108 = load i64, ptr %17, align 8
  %109 = icmp eq i64 %108, -9223372036854775808
  br i1 %109, label %128, label %110

110:                                              ; preds = %107
  %111 = load i64, ptr %17, align 8
  %112 = icmp eq i64 %111, 9223372036854775807
  br i1 %112, label %128, label %113

113:                                              ; preds = %110, %100
  %114 = load ptr, ptr %4, align 8
  %115 = load ptr, ptr %16, align 8
  %116 = icmp eq ptr %114, %115
  br i1 %116, label %128, label %117

117:                                              ; preds = %113
  %118 = load ptr, ptr %16, align 8
  %119 = load i8, ptr %118, align 1
  %120 = sext i8 %119 to i32
  %121 = icmp ne i32 %120, 0
  br i1 %121, label %128, label %122

122:                                              ; preds = %117
  %123 = load i64, ptr %17, align 8
  %124 = icmp slt i64 %123, 0
  br i1 %124, label %128, label %125

125:                                              ; preds = %122
  %126 = load i64, ptr %17, align 8
  %127 = icmp sgt i64 %126, 4294967295
  br i1 %127, label %128, label %129

128:                                              ; preds = %125, %122, %117, %113, %110, %107
  call void @slurm_xfree(ptr noundef %13)
  store i32 -1, ptr %3, align 4
  store i32 1, ptr %18, align 4
  br label %139

129:                                              ; preds = %125
  %130 = load i64, ptr %17, align 8
  %131 = trunc i64 %130 to i32
  call void @slurm_getpwuid_r(i32 noundef %131, ptr noundef %10, ptr noundef %15, ptr noundef %13, ptr noundef %14, ptr noundef %11)
  %132 = load ptr, ptr %11, align 8
  %133 = icmp ne ptr %132, null
  br i1 %133, label %135, label %134

134:                                              ; preds = %129
  call void @slurm_xfree(ptr noundef %13)
  store i32 -1, ptr %3, align 4
  store i32 1, ptr %18, align 4
  br label %139

135:                                              ; preds = %129
  %136 = load i64, ptr %17, align 8
  %137 = trunc i64 %136 to i32
  %138 = load ptr, ptr %5, align 8
  store i32 %137, ptr %138, align 4
  call void @slurm_xfree(ptr noundef %13)
  store i32 0, ptr %3, align 4
  store i32 1, ptr %18, align 4
  br label %139

139:                                              ; preds = %135, %134, %128, %95, %23
  call void @llvm.lifetime.end.p0(i64 8, ptr %17) #9
  call void @llvm.lifetime.end.p0(i64 8, ptr %16) #9
  call void @llvm.lifetime.end.p0(i64 8, ptr %15) #9
  call void @llvm.lifetime.end.p0(i64 8, ptr %14) #9
  call void @llvm.lifetime.end.p0(i64 8, ptr %13) #9
  call void @llvm.lifetime.end.p0(i64 65536, ptr %12) #9
  call void @llvm.lifetime.end.p0(i64 8, ptr %11) #9
  call void @llvm.lifetime.end.p0(i64 48, ptr %10) #9
  call void @llvm.lifetime.end.p0(i64 8, ptr %9) #9
  call void @llvm.lifetime.end.p0(i64 20, ptr %8) #9
  call void @llvm.lifetime.end.p0(i64 16, ptr %7) #9
  call void @llvm.lifetime.end.p0(i64 16, ptr %6) #9
  %140 = load i32, ptr %3, align 4
  ret i32 %140

141:                                              ; preds = %85
  unreachable
}