; Function Attrs: nounwind uwtable
define dso_local range(i32 -1, 1) i32 @uid_from_string(ptr noundef %0, ptr noundef writeonly captures(none) %1) local_unnamed_addr #0 {
  %3 = alloca %struct.timeval, align 8
  %4 = alloca %struct.timeval, align 8
  %5 = alloca [20 x i8], align 16
  %6 = alloca i64, align 8
  %7 = alloca %struct.passwd, align 8
  %8 = alloca ptr, align 8
  %9 = alloca [65536 x i8], align 16
  %10 = alloca ptr, align 8
  %11 = alloca i64, align 8
  %12 = alloca ptr, align 8
  %13 = alloca ptr, align 8
  call void @llvm.lifetime.start.p0(i64 16, ptr nonnull %3) #10
  call void @llvm.lifetime.start.p0(i64 16, ptr nonnull %4) #10
  call void @llvm.lifetime.start.p0(i64 20, ptr nonnull %5) #10
  call void @llvm.memset.p0.i64(ptr noundef nonnull align 16 dereferenceable(20) %5, i8 0, i64 20, i1 false)
  call void @llvm.lifetime.start.p0(i64 8, ptr nonnull %6) #10
  call void @llvm.lifetime.start.p0(i64 48, ptr nonnull %7) #10
  call void @llvm.lifetime.start.p0(i64 8, ptr nonnull %8) #10
  store ptr null, ptr %8, align 8
  call void @llvm.lifetime.start.p0(i64 65536, ptr nonnull %9) #10
  call void @llvm.lifetime.start.p0(i64 8, ptr nonnull %10) #10
  store ptr null, ptr %10, align 8
  call void @llvm.lifetime.start.p0(i64 8, ptr nonnull %11) #10
  store i64 65536, ptr %11, align 8
  call void @llvm.lifetime.start.p0(i64 8, ptr nonnull %12) #10
  store ptr %9, ptr %12, align 8
  call void @llvm.lifetime.start.p0(i64 8, ptr nonnull %13) #10
  store ptr null, ptr %13, align 8
  %.not = icmp eq ptr %0, null
  br i1 %.not, label %63, label %14

14:                                               ; preds = %2
  %15 = call i32 @gettimeofday(ptr noundef nonnull %3, ptr noundef null) #10
  %16 = call i32 @getpwnam_r(ptr noundef nonnull %0, ptr noundef nonnull %7, ptr noundef nonnull %9, i64 noundef 65536, ptr noundef nonnull %8) #10
  %17 = icmp eq i32 %16, 0
  %18 = load ptr, ptr %8, align 8
  %19 = icmp ne ptr %18, null
  %or.cond59 = select i1 %17, i1 %19, i1 false
  br i1 %or.cond59, label %.loopexit, label %.lr.ph

.lr.ph:                                           ; preds = %14, %34
  %20 = phi i32 [ %37, %34 ], [ %16, %14 ]
  %21 = phi ptr [ %36, %34 ], [ %9, %14 ]
  %22 = phi i64 [ %35, %34 ], [ 65536, %14 ]
  switch i32 %20, label %30 [
    i32 4, label %34
    i32 34, label %23
    i32 9, label %26
    i32 3, label %26
    i32 2, label %26
    i32 1, label %26
    i32 0, label %26
  ]

23:                                               ; preds = %.lr.ph
  %24 = shl i64 %22, 1
  %25 = call ptr @slurm_xrecalloc(ptr noundef nonnull %10, i64 noundef 1, i64 noundef %24, i1 noundef zeroext true, i1 noundef zeroext false, ptr noundef nonnull @.str, i32 noundef 125, ptr noundef nonnull @__func__.uid_from_string) #10
  br label %34, !llvm.loop !10

26:                                               ; preds = %.lr.ph, %.lr.ph, %.lr.ph, %.lr.ph, %.lr.ph
  store ptr %21, ptr %12, align 8
  store i64 %22, ptr %11, align 8
  %27 = call i32 @get_log_level() #10
  %28 = icmp sgt i32 %27, 5
  br i1 %28, label %29, label %33

29:                                               ; preds = %26
  call void (i32, ptr, ...) @log_var(i32 noundef 6, ptr noundef nonnull @.str.4, ptr noundef nonnull @__func__.uid_from_string, ptr noundef nonnull %0) #10
  br label %33

30:                                               ; preds = %.lr.ph
  store ptr %21, ptr %12, align 8
  store i64 %22, ptr %11, align 8
  %31 = call ptr @slurm_strerror(i32 noundef %20) #10
  %32 = call i32 (ptr, ...) @error(ptr noundef nonnull @.str.5, ptr noundef nonnull @__func__.uid_from_string, ptr noundef nonnull %0, ptr noundef %31) #10
  br label %33

33:                                               ; preds = %26, %29, %30
  store ptr null, ptr %8, align 8
  br label %41

34:                                               ; preds = %.lr.ph, %23
  %35 = phi i64 [ %22, %.lr.ph ], [ %24, %23 ]
  %36 = phi ptr [ %21, %.lr.ph ], [ %25, %23 ]
  %37 = call i32 @getpwnam_r(ptr noundef nonnull %0, ptr noundef nonnull %7, ptr noundef %36, i64 noundef %35, ptr noundef nonnull %8) #10
  %38 = icmp eq i32 %37, 0
  %39 = load ptr, ptr %8, align 8
  %40 = icmp ne ptr %39, null
  %or.cond = select i1 %38, i1 %40, i1 false
  br i1 %or.cond, label %.loopexit, label %.lr.ph

.loopexit:                                        ; preds = %34, %14
  %.lcssa56 = phi i64 [ 65536, %14 ], [ %35, %34 ]
  %.lcssa = phi ptr [ %9, %14 ], [ %36, %34 ]
  store ptr %.lcssa, ptr %12, align 8
  store i64 %.lcssa56, ptr %11, align 8
  br label %41

41:                                               ; preds = %.loopexit, %33
  %42 = call i32 @gettimeofday(ptr noundef nonnull %4, ptr noundef null) #10
  call void @slurm_diff_tv_str(ptr noundef nonnull %3, ptr noundef nonnull %4, ptr noundef nonnull %5, i32 noundef 20, ptr noundef nonnull @.str.6, i64 noundef 0, ptr noundef nonnull %6) #10
  %43 = load ptr, ptr %8, align 8
  %.not45 = icmp eq ptr %43, null
  br i1 %.not45, label %47, label %44

44:                                               ; preds = %41
  %45 = getelementptr inbounds nuw i8, ptr %43, i64 16
  %46 = load i32, ptr %45, align 8
  br label %.sink.split.sink.split

47:                                               ; preds = %41
  %48 = tail call ptr @__errno_location() #11
  store i32 0, ptr %48, align 4
  %49 = call i64 @strtol(ptr noundef nonnull %0, ptr noundef nonnull %13, i32 noundef 10) #10
  %50 = load i32, ptr %48, align 4
  %51 = icmp eq i32 %50, 34
  %52 = add i64 %49, -9223372036854775807
  %or.cond11 = icmp ult i64 %52, 2
  %or.cond47 = select i1 %51, i1 %or.cond11, i1 false
  br i1 %or.cond47, label %.sink.split, label %53

53:                                               ; preds = %47
  %54 = load ptr, ptr %13, align 8
  %55 = icmp eq ptr %0, %54
  br i1 %55, label %.sink.split, label %56

56:                                               ; preds = %53
  %57 = load i8, ptr %54, align 1
  %58 = icmp ne i8 %57, 0
  %59 = icmp ugt i64 %49, 4294967295
  %or.cond15 = select i1 %58, i1 true, i1 %59
  br i1 %or.cond15, label %.sink.split, label %60

60:                                               ; preds = %56
  %61 = trunc nuw i64 %49 to i32
  call void @slurm_getpwuid_r(i32 noundef %61, ptr noundef nonnull %7, ptr noundef nonnull %12, ptr noundef nonnull %10, ptr noundef nonnull %11, ptr noundef nonnull %8)
  %62 = load ptr, ptr %8, align 8
  %.not46 = icmp eq ptr %62, null
  br i1 %.not46, label %.sink.split, label %.sink.split.sink.split

.sink.split.sink.split:                           ; preds = %60, %44
  %.sink = phi i32 [ %46, %44 ], [ %61, %60 ]
  store i32 %.sink, ptr %1, align 4
  br label %.sink.split

.sink.split:                                      ; preds = %.sink.split.sink.split, %60, %53, %56, %47
  %.0.ph = phi i32 [ -1, %47 ], [ -1, %56 ], [ -1, %53 ], [ -1, %60 ], [ 0, %.sink.split.sink.split ]
  call void @slurm_xfree(ptr noundef nonnull %10) #10
  br label %63

63:                                               ; preds = %.sink.split, %2
  %.0 = phi i32 [ -1, %2 ], [ %.0.ph, %.sink.split ]
  call void @llvm.lifetime.end.p0(i64 8, ptr nonnull %13) #10
  call void @llvm.lifetime.end.p0(i64 8, ptr nonnull %12) #10
  call void @llvm.lifetime.end.p0(i64 8, ptr nonnull %11) #10
  call void @llvm.lifetime.end.p0(i64 8, ptr nonnull %10) #10
  call void @llvm.lifetime.end.p0(i64 65536, ptr nonnull %9) #10
  call void @llvm.lifetime.end.p0(i64 8, ptr nonnull %8) #10
  call void @llvm.lifetime.end.p0(i64 48, ptr nonnull %7) #10
  call void @llvm.lifetime.end.p0(i64 8, ptr nonnull %6) #10
  call void @llvm.lifetime.end.p0(i64 20, ptr nonnull %5) #10
  call void @llvm.lifetime.end.p0(i64 16, ptr nonnull %4) #10
  call void @llvm.lifetime.end.p0(i64 16, ptr nonnull %3) #10
  ret i32 %.0
}